; Function Attrs: mustprogress uwtable
define hidden void @_ZN3fmt3v114file5closeEv(ptr noundef nonnull align 4 captures(none) dereferenceable(4) %0) local_unnamed_addr #5 align 2 personality ptr @__gxx_personality_v0 {
  %2 = load i32, ptr %0, align 4, !tbaa !34
  %3 = icmp eq i32 %2, -1
  br i1 %3, label %13, label %4

4:                                                ; preds = %1
  %5 = tail call i32 @close(i32 noundef %2)
  store i32 -1, ptr %0, align 4, !tbaa !34
  %.not = icmp eq i32 %5, 0
  br i1 %.not, label %13, label %6

6:                                                ; preds = %4
  %7 = tail call ptr @__cxa_allocate_exception(i64 32) #32
  %8 = tail call ptr @__errno_location() #31
  %9 = load i32, ptr %8, align 4, !tbaa !10
  invoke void @_ZN3fmt3v1112system_errorIJEEESt12system_erroriNS0_7fstringIJDpT_EE1tEDpOS4_(ptr dead_on_unwind writable sret(%"class.std::system_error") align 8 %7, i32 noundef %9, ptr nonnull @.str, i64 17)
          to label %10 unwind label %11

10:                                               ; preds = %6
  tail call void @__cxa_throw(ptr %7, ptr nonnull @_ZTISt12system_error, ptr nonnull @_ZNSt12system_errorD1Ev) #35
  unreachable

11:                                               ; preds = %6
  %12 = landingpad { ptr, i32 }
          cleanup
  tail call void @__cxa_free_exception(ptr %7) #32
  resume { ptr, i32 } %12

13:                                               ; preds = %4, %1
  ret void
}